target datalayout = "e-m:e-p270:32:32-p271:32:32-p272:64:64-i64:64-i128:128-f80:128-n8:16:32:64-S128"
target triple = "x86_64-pc-linux-gnu"

%struct.ggml_gallocr = type { ptr, ptr, ptr, i32, %struct.ggml_hash_set, ptr, ptr, i32, ptr, i32 }
%struct.ggml_hash_set = type { i64, ptr, ptr }

@.str.1 = private unnamed_addr constant [119 x i8] c"generated/home/dtcxzyw/WorkSpace/Projects/compilers/llvm-opt-benchmark/bench/llama.cpp/llama.cpp/ggml/src/ggml-alloc.c\00", align 1
@.str.3 = private unnamed_addr constant [23 x i8] c"GGML_ASSERT(%s) failed\00", align 1
@.str.13 = private unnamed_addr constant [48 x i8] c"buffer_id >= 0 && buffer_id < galloc->n_buffers\00", align 1

; Function Attrs: nounwind uwtable
define i64 @ggml_gallocr_get_buffer_size(ptr noundef %0, i32 noundef %1) #0 {
  %3 = alloca i64, align 8
  %4 = alloca ptr, align 8
  %5 = alloca i32, align 4
  %6 = alloca i32, align 4
  %7 = alloca i32, align 4
  store ptr %0, ptr %4, align 8, !tbaa !25
  store i32 %1, ptr %5, align 4, !tbaa !23
  %8 = load i32, ptr %5, align 4, !tbaa !23
  %9 = icmp sge i32 %8, 0
  br i1 %9, label %10, label %16

10:                                               ; preds = %2
  %11 = load i32, ptr %5, align 4, !tbaa !23
  %12 = load ptr, ptr %4, align 8, !tbaa !25
  %13 = getelementptr inbounds nuw %struct.ggml_gallocr, ptr %12, i32 0, i32 3
  %14 = load i32, ptr %13, align 8, !tbaa !46
  %15 = icmp slt i32 %11, %14
  br i1 %15, label %17, label %16

16:                                               ; preds = %10, %2
  call void (ptr, i32, ptr, ...) @ggml_abort(ptr noundef @.str.1, i32 noundef 917, ptr noundef @.str.3, ptr noundef @.str.13) #12
  unreachable

17:                                               ; preds = %10
  %18 = load ptr, ptr %4, align 8, !tbaa !25
  %19 = getelementptr inbounds nuw %struct.ggml_gallocr, ptr %18, i32 0, i32 1
  %20 = load ptr, ptr %19, align 8, !tbaa !37
  %21 = load i32, ptr %5, align 4, !tbaa !23
  %22 = sext i32 %21 to i64
  %23 = getelementptr inbounds ptr, ptr %20, i64 %22
  %24 = load ptr, ptr %23, align 8, !tbaa !3
  %25 = icmp eq ptr %24, null
  br i1 %25, label %26, label %27

26:                                               ; preds = %17
  store i64 0, ptr %3, align 8
  br label %65

27:                                               ; preds = %17
  call void @llvm.lifetime.start.p0(i64 4, ptr %6) #11
  store i32 0, ptr %6, align 4, !tbaa !23
  br label %28

28:                                               ; preds = %51, %27
  %29 = load i32, ptr %6, align 4, !tbaa !23
  %30 = load i32, ptr %5, align 4, !tbaa !23
  %31 = icmp slt i32 %29, %30
  br i1 %31, label %33, label %32

32:                                               ; preds = %28
  store i32 2, ptr %7, align 4
  br label %54

33:                                               ; preds = %28
  %34 = load ptr, ptr %4, align 8, !tbaa !25
  %35 = getelementptr inbounds nuw %struct.ggml_gallocr, ptr %34, i32 0, i32 1
  %36 = load ptr, ptr %35, align 8, !tbaa !37
  %37 = load i32, ptr %6, align 4, !tbaa !23
  %38 = sext i32 %37 to i64
  %39 = getelementptr inbounds ptr, ptr %36, i64 %38
  %40 = load ptr, ptr %39, align 8, !tbaa !3
  %41 = load ptr, ptr %4, align 8, !tbaa !25
  %42 = getelementptr inbounds nuw %struct.ggml_gallocr, ptr %41, i32 0, i32 1
  %43 = load ptr, ptr %42, align 8, !tbaa !37
  %44 = load i32, ptr %5, align 4, !tbaa !23
  %45 = sext i32 %44 to i64
  %46 = getelementptr inbounds ptr, ptr %43, i64 %45
  %47 = load ptr, ptr %46, align 8, !tbaa !3
  %48 = icmp eq ptr %40, %47
  br i1 %48, label %49, label %50

49:                                               ; preds = %33
  store i64 0, ptr %3, align 8
  store i32 1, ptr %7, align 4
  br label %54

50:                                               ; preds = %33
  br label %51

51:                                               ; preds = %50
  %52 = load i32, ptr %6, align 4, !tbaa !23
  %53 = add nsw i32 %52, 1
  store i32 %53, ptr %6, align 4, !tbaa !23
  br label %28, !llvm.loop !128

54:                                               ; preds = %49, %32
  call void @llvm.lifetime.end.p0(i64 4, ptr %6) #11
  %55 = load i32, ptr %7, align 4
  switch i32 %55, label %67 [
    i32 2, label %56
    i32 1, label %65
  ]

56:                                               ; preds = %54
  %57 = load ptr, ptr %4, align 8, !tbaa !25
  %58 = getelementptr inbounds nuw %struct.ggml_gallocr, ptr %57, i32 0, i32 1
  %59 = load ptr, ptr %58, align 8, !tbaa !37
  %60 = load i32, ptr %5, align 4, !tbaa !23
  %61 = sext i32 %60 to i64
  %62 = getelementptr inbounds ptr, ptr %59, i64 %61
  %63 = load ptr, ptr %62, align 8, !tbaa !3
  %64 = call i64 @ggml_backend_buffer_get_size(ptr noundef %63)
  store i64 %64, ptr %3, align 8
  br label %65

65:                                               ; preds = %56, %54, %26
  %66 = load i64, ptr %3, align 8
  ret i64 %66

67:                                               ; preds = %54
  unreachable
}