; Function Attrs: nounwind uwtable
define i64 @ggml_gallocr_get_buffer_size(ptr noundef readonly captures(none) %0, i32 noundef %1) local_unnamed_addr #0 {
  %3 = icmp sgt i32 %1, -1
  br i1 %3, label %4, label %8

4:                                                ; preds = %2
  %5 = getelementptr inbounds nuw i8, ptr %0, i64 24
  %6 = load i32, ptr %5, align 8, !tbaa !28
  %7 = icmp slt i32 %1, %6
  br i1 %7, label %9, label %8

8:                                                ; preds = %4, %2
  tail call void (ptr, i32, ptr, ...) @ggml_abort(ptr noundef nonnull @.str.1, i32 noundef 917, ptr noundef nonnull @.str.3, ptr noundef nonnull @.str.13) #13
  unreachable

9:                                                ; preds = %4
  %10 = getelementptr inbounds nuw i8, ptr %0, i64 8
  %11 = load ptr, ptr %10, align 8, !tbaa !26
  %12 = zext nneg i32 %1 to i64
  %13 = getelementptr inbounds nuw ptr, ptr %11, i64 %12
  %14 = load ptr, ptr %13, align 8, !tbaa !31
  %15 = icmp eq ptr %14, null
  br i1 %15, label %.loopexit, label %.preheader

.preheader:                                       ; preds = %9
  %.not = icmp eq i32 %1, 0
  br i1 %.not, label %._crit_edge, label %.lr.ph

16:                                               ; preds = %.lr.ph
  %indvars.iv.next = add nuw nsw i64 %indvars.iv, 1
  %exitcond.not = icmp eq i64 %indvars.iv.next, %12
  br i1 %exitcond.not, label %._crit_edge, label %.lr.ph, !llvm.loop !121

.lr.ph:                                           ; preds = %.preheader, %16
  %indvars.iv = phi i64 [ %indvars.iv.next, %16 ], [ 0, %.preheader ]
  %17 = getelementptr inbounds nuw ptr, ptr %11, i64 %indvars.iv
  %18 = load ptr, ptr %17, align 8, !tbaa !31
  %19 = icmp eq ptr %18, %14
  br i1 %19, label %.loopexit, label %16

._crit_edge:                                      ; preds = %16, %.preheader
  %20 = tail call i64 @ggml_backend_buffer_get_size(ptr noundef nonnull %14) #12
  br label %.loopexit

.loopexit:                                        ; preds = %.lr.ph, %9, %._crit_edge
  %.016 = phi i64 [ %20, %._crit_edge ], [ 0, %9 ], [ 0, %.lr.ph ]
  ret i64 %.016
}